; Function Attrs: mustprogress uwtable
define noundef double @_ZNK8QuantLib21NoArbSabrSmileSection7densityEddd(ptr nocapture noundef nonnull readonly align 8 dereferenceable(128) %this, double noundef %strike, double noundef %discount, double %0) unnamed_addr #6 align 2 {
entry:
  %model_ = getelementptr inbounds nuw i8, ptr %this, i64 72
  %1 = load ptr, ptr %model_, align 8, !tbaa !57
  %cmp.not.i = icmp eq ptr %1, null
  br i1 %cmp.not.i, label %cond.false.i, label %_ZNK5boost10shared_ptrIN8QuantLib14NoArbSabrModelEEptEv.exit, !prof !67

cond.false.i:                                     ; preds = %entry
  tail call void @_ZN5boost16assertion_failedEPKcS1_S1_l(ptr noundef nonnull @.str.13, ptr noundef nonnull @__PRETTY_FUNCTION__._ZNK5boost10shared_ptrIN8QuantLib14NoArbSabrModelEEptEv, ptr noundef nonnull @.str.14, i64 noundef 784)
  %.pre.i = load ptr, ptr %model_, align 8, !tbaa !57
  br label %_ZNK5boost10shared_ptrIN8QuantLib14NoArbSabrModelEEptEv.exit

_ZNK5boost10shared_ptrIN8QuantLib14NoArbSabrModelEEptEv.exit: ; preds = %entry, %cond.false.i
  %2 = phi ptr [ %1, %entry ], [ %.pre.i, %cond.false.i ]
  %call.i = tail call noundef double @_ZNK8QuantLib14NoArbSabrModel1pEd(ptr noundef nonnull align 8 dereferenceable(112) %2, double noundef %strike)
  %absProb_.i = getelementptr inbounds nuw i8, ptr %2, i64 48
  %3 = load double, ptr %absProb_.i, align 8, !tbaa !68
  %sub.i = fsub double 1.000000e+00, %3
  %mul.i = fmul double %call.i, %sub.i
  %numericalIntegralOverP_.i = getelementptr inbounds nuw i8, ptr %2, i64 80
  %4 = load double, ptr %numericalIntegralOverP_.i, align 8, !tbaa !71
  %div.i = fdiv double %mul.i, %4
  %mul = fmul double %discount, %div.i
  ret double %mul
}